target datalayout = "e-m:e-p270:32:32-p271:32:32-p272:64:64-i64:64-i128:128-f80:128-n8:16:32:64-S128"
target triple = "x86_64-pc-linux-gnu"

@.str.6 = private unnamed_addr constant [16 x i8] c"timeout expired\00", align 1

; Function Attrs: nounwind uwtable
define i32 @pqWaitTimed(i32 noundef %0, i32 noundef %1, ptr noundef %2, i64 noundef %3) #0 {
  %5 = alloca i32, align 4
  %6 = alloca i32, align 4
  %7 = alloca i32, align 4
  %8 = alloca ptr, align 8
  %9 = alloca i64, align 8
  %10 = alloca i32, align 4
  %11 = alloca i32, align 4
  store i32 %0, ptr %6, align 4
  store i32 %1, ptr %7, align 4
  store ptr %2, ptr %8, align 8
  store i64 %3, ptr %9, align 8
  call void @llvm.lifetime.start.p0(i64 4, ptr %10) #10
  %12 = load ptr, ptr %8, align 8
  %13 = load i32, ptr %6, align 4
  %14 = load i32, ptr %7, align 4
  %15 = load i64, ptr %9, align 8
  %16 = call i32 @pqSocketCheck(ptr noundef %12, i32 noundef %13, i32 noundef %14, i64 noundef %15)
  store i32 %16, ptr %10, align 4
  %17 = load i32, ptr %10, align 4
  %18 = icmp slt i32 %17, 0
  br i1 %18, label %19, label %20

19:                                               ; preds = %4
  store i32 -1, ptr %5, align 4
  store i32 1, ptr %11, align 4
  br label %26

20:                                               ; preds = %4
  %21 = load i32, ptr %10, align 4
  %22 = icmp eq i32 %21, 0
  br i1 %22, label %23, label %25

23:                                               ; preds = %20
  %24 = load ptr, ptr %8, align 8
  call void (ptr, ptr, ...) @libpq_append_conn_error(ptr noundef %24, ptr noundef @.str.6)
  store i32 1, ptr %5, align 4
  store i32 1, ptr %11, align 4
  br label %26

25:                                               ; preds = %20
  store i32 0, ptr %5, align 4
  store i32 1, ptr %11, align 4
  br label %26

26:                                               ; preds = %25, %23, %19
  call void @llvm.lifetime.end.p0(i64 4, ptr %10) #10
  %27 = load i32, ptr %5, align 4
  ret i32 %27
}

; Function Attrs: nounwind uwtable
define i32 @pqWait(i32 noundef %0, i32 noundef %1, ptr noundef %2) #0 {
  %4 = alloca i32, align 4
  %5 = alloca i32, align 4
  %6 = alloca ptr, align 8
  store i32 %0, ptr %4, align 4
  store i32 %1, ptr %5, align 4
  store ptr %2, ptr %6, align 8
  %7 = load i32, ptr %4, align 4
  %8 = load i32, ptr %5, align 4
  %9 = load ptr, ptr %6, align 8
  %10 = call i32 @pqWaitTimed(i32 noundef %7, i32 noundef %8, ptr noundef %9, i64 noundef -1)
  ret i32 %10
}