; Function Attrs: nounwind uwtable
define range(i32 -1, 2) i32 @pqWait(i32 noundef %0, i32 noundef %1, ptr noundef %2) local_unnamed_addr #2 {
  %4 = tail call fastcc i32 @pqSocketCheck(ptr noundef %2, i32 noundef %0, i32 noundef %1, i64 noundef -1)
  %5 = icmp slt i32 %4, 0
  br i1 %5, label %pqWaitTimed.exit, label %6

6:                                                ; preds = %3
  %7 = icmp eq i32 %4, 0
  br i1 %7, label %8, label %pqWaitTimed.exit

8:                                                ; preds = %6
  tail call void (ptr, ptr, ...) @libpq_append_conn_error(ptr noundef %2, ptr noundef nonnull @.str.6)
  br label %pqWaitTimed.exit

pqWaitTimed.exit:                                 ; preds = %3, %6, %8
  %.0.i = phi i32 [ 1, %8 ], [ -1, %3 ], [ 0, %6 ]
  ret i32 %.0.i
}